; Function Attrs: mustprogress uwtable
define hidden noundef zeroext i1 @_ZN2cv17MotionJpegCapture9grabFrameEv(ptr noundef nonnull align 8 dereferenceable(256) %0) unnamed_addr #6 align 2 personality ptr @__gxx_personality_v0 {
  %2 = load ptr, ptr %0, align 8, !tbaa !73
  %3 = getelementptr inbounds nuw i8, ptr %2, i64 48
  %4 = load ptr, ptr %3, align 8
  %5 = tail call noundef zeroext i1 %4(ptr noundef nonnull align 8 dereferenceable(256) %0)
  br i1 %5, label %6, label %._ZNSt15_Deque_iteratorISt4pairImjERS1_PS1_EppEv.exit_crit_edge

._ZNSt15_Deque_iteratorISt4pairImjERS1_PS1_EppEv.exit_crit_edge: ; preds = %1
  %.phi.trans.insert = getelementptr inbounds nuw i8, ptr %0, i64 112
  %.pre = load ptr, ptr %.phi.trans.insert, align 8, !tbaa !35
  br label %_ZNSt15_Deque_iteratorISt4pairImjERS1_PS1_EppEv.exit

6:                                                ; preds = %1
  %7 = getelementptr inbounds nuw i8, ptr %0, i64 24
  %8 = load i8, ptr %7, align 8, !tbaa !3, !range !50, !noundef !51
  %9 = trunc nuw i8 %8 to i1
  br i1 %9, label %10, label %20

10:                                               ; preds = %6
  store i8 0, ptr %7, align 8, !tbaa !3
  %11 = getelementptr inbounds nuw i8, ptr %0, i64 48
  %12 = load ptr, ptr %11, align 8, !tbaa !35, !noalias !75
  %13 = getelementptr inbounds nuw i8, ptr %0, i64 56
  %14 = load ptr, ptr %13, align 8, !tbaa !39, !noalias !75
  %15 = getelementptr inbounds nuw i8, ptr %0, i64 64
  %16 = load ptr, ptr %15, align 8, !tbaa !40, !noalias !75
  %17 = getelementptr inbounds nuw i8, ptr %0, i64 72
  %18 = load ptr, ptr %17, align 8, !tbaa !41, !noalias !75
  %19 = getelementptr inbounds nuw i8, ptr %0, i64 112
  store ptr %12, ptr %19, align 8, !tbaa !42
  %.sroa.47.0..sroa_idx = getelementptr inbounds nuw i8, ptr %0, i64 120
  store ptr %14, ptr %.sroa.47.0..sroa_idx, align 8, !tbaa !42
  %.sroa.58.0..sroa_idx = getelementptr inbounds nuw i8, ptr %0, i64 128
  store ptr %16, ptr %.sroa.58.0..sroa_idx, align 8, !tbaa !42
  %.sroa.69.0..sroa_idx = getelementptr inbounds nuw i8, ptr %0, i64 136
  store ptr %18, ptr %.sroa.69.0..sroa_idx, align 8, !tbaa !43
  br label %_ZNSt15_Deque_iteratorISt4pairImjERS1_PS1_EppEv.exit

20:                                               ; preds = %6
  %21 = getelementptr inbounds nuw i8, ptr %0, i64 112
  %22 = getelementptr inbounds nuw i8, ptr %0, i64 80
  %23 = load ptr, ptr %22, align 8, !tbaa !35, !noalias !78
  %24 = load ptr, ptr %21, align 8, !tbaa !35
  %25 = icmp eq ptr %24, %23
  br i1 %25, label %42, label %26

26:                                               ; preds = %20
  %27 = getelementptr inbounds nuw i8, ptr %24, i64 16
  store ptr %27, ptr %21, align 8, !tbaa !35
  %28 = getelementptr inbounds nuw i8, ptr %0, i64 128
  %29 = load ptr, ptr %28, align 8, !tbaa !40
  %30 = icmp eq ptr %27, %29
  br i1 %30, label %31, label %_ZNSt15_Deque_iteratorISt4pairImjERS1_PS1_EppEv.exit

31:                                               ; preds = %26
  %32 = getelementptr inbounds nuw i8, ptr %0, i64 136
  %33 = load ptr, ptr %32, align 8, !tbaa !41
  %34 = getelementptr inbounds nuw i8, ptr %33, i64 8
  store ptr %34, ptr %32, align 8, !tbaa !41
  %35 = load ptr, ptr %34, align 8, !tbaa !42
  %36 = getelementptr inbounds nuw i8, ptr %0, i64 120
  store ptr %35, ptr %36, align 8, !tbaa !39
  %37 = getelementptr inbounds nuw i8, ptr %35, i64 512
  store ptr %37, ptr %28, align 8, !tbaa !40
  store ptr %35, ptr %21, align 8, !tbaa !35
  br label %_ZNSt15_Deque_iteratorISt4pairImjERS1_PS1_EppEv.exit

_ZNSt15_Deque_iteratorISt4pairImjERS1_PS1_EppEv.exit: ; preds = %._ZNSt15_Deque_iteratorISt4pairImjERS1_PS1_EppEv.exit_crit_edge, %31, %26, %10
  %38 = phi ptr [ %.pre, %._ZNSt15_Deque_iteratorISt4pairImjERS1_PS1_EppEv.exit_crit_edge ], [ %35, %31 ], [ %27, %26 ], [ %12, %10 ]
  %39 = getelementptr inbounds nuw i8, ptr %0, i64 80
  %40 = load ptr, ptr %39, align 8, !tbaa !35, !noalias !81
  %41 = icmp ne ptr %38, %40
  br label %42

42:                                               ; preds = %20, %_ZNSt15_Deque_iteratorISt4pairImjERS1_PS1_EppEv.exit
  %.0 = phi i1 [ %41, %_ZNSt15_Deque_iteratorISt4pairImjERS1_PS1_EppEv.exit ], [ false, %20 ]
  ret i1 %.0
}